target datalayout = "e-m:e-p270:32:32-p271:32:32-p272:64:64-i64:64-i128:128-f80:128-n8:16:32:64-S128"
target triple = "x86_64-pc-linux-gnu"

%struct.Aig_Obj_t_ = type { %union.anon, ptr, ptr, i64, i32, i32, %union.anon.0 }
%union.anon = type { ptr }
%union.anon.0 = type { ptr }
%struct.Vec_Ptr_t_ = type { i32, i32, ptr }

; Function Attrs: inlinehint nounwind uwtable
define internal ptr @Dch_ObjSim(ptr noundef %0, ptr noundef %1) #2 {
  %3 = alloca ptr, align 8
  %4 = alloca ptr, align 8
  store ptr %0, ptr %3, align 8, !tbaa !9
  store ptr %1, ptr %4, align 8, !tbaa !7
  %5 = load ptr, ptr %3, align 8, !tbaa !9
  %6 = load ptr, ptr %4, align 8, !tbaa !7
  %7 = getelementptr inbounds nuw %struct.Aig_Obj_t_, ptr %6, i32 0, i32 5
  %8 = load i32, ptr %7, align 4, !tbaa !20
  %9 = call ptr @Vec_PtrEntry(ptr noundef %5, i32 noundef %8)
  ret ptr %9
}

; Function Attrs: inlinehint nounwind uwtable
define internal ptr @Vec_PtrEntry(ptr noundef %0, i32 noundef %1) #2 {
  %3 = alloca ptr, align 8
  %4 = alloca i32, align 4
  store ptr %0, ptr %3, align 8, !tbaa !9
  store i32 %1, ptr %4, align 4, !tbaa !11
  %5 = load ptr, ptr %3, align 8, !tbaa !9
  %6 = getelementptr inbounds nuw %struct.Vec_Ptr_t_, ptr %5, i32 0, i32 2
  %7 = load ptr, ptr %6, align 8, !tbaa !18
  %8 = load i32, ptr %4, align 4, !tbaa !11
  %9 = sext i32 %8 to i64
  %10 = getelementptr inbounds ptr, ptr %7, i64 %9
  %11 = load ptr, ptr %10, align 8, !tbaa !3
  ret ptr %11
}

; Function Attrs: nounwind uwtable
define i32 @Dch_NodeIsConst(ptr noundef %0, ptr noundef %1) #0 {
  %3 = alloca i32, align 4
  %4 = alloca ptr, align 8
  %5 = alloca ptr, align 8
  %6 = alloca ptr, align 8
  %7 = alloca ptr, align 8
  %8 = alloca i32, align 4
  %9 = alloca i32, align 4
  %10 = alloca i32, align 4
  store ptr %0, ptr %4, align 8, !tbaa !3
  store ptr %1, ptr %5, align 8, !tbaa !7
  call void @llvm.lifetime.start.p0(i64 8, ptr %6) #7
  %11 = load ptr, ptr %4, align 8, !tbaa !3
  store ptr %11, ptr %6, align 8, !tbaa !9
  call void @llvm.lifetime.start.p0(i64 8, ptr %7) #7
  call void @llvm.lifetime.start.p0(i64 4, ptr %8) #7
  call void @llvm.lifetime.start.p0(i64 4, ptr %9) #7
  %12 = load ptr, ptr %6, align 8, !tbaa !9
  %13 = call ptr @Vec_PtrEntry(ptr noundef %12, i32 noundef 1)
  %14 = load ptr, ptr %6, align 8, !tbaa !9
  %15 = call ptr @Vec_PtrEntry(ptr noundef %14, i32 noundef 0)
  %16 = ptrtoint ptr %13 to i64
  %17 = ptrtoint ptr %15 to i64
  %18 = sub i64 %16, %17
  %19 = sdiv exact i64 %18, 4
  %20 = trunc i64 %19 to i32
  store i32 %20, ptr %9, align 4, !tbaa !11
  %21 = load ptr, ptr %6, align 8, !tbaa !9
  %22 = load ptr, ptr %5, align 8, !tbaa !7
  %23 = call ptr @Dch_ObjSim(ptr noundef %21, ptr noundef %22)
  store ptr %23, ptr %7, align 8, !tbaa !13
  %24 = load ptr, ptr %5, align 8, !tbaa !7
  %25 = getelementptr inbounds nuw %struct.Aig_Obj_t_, ptr %24, i32 0, i32 3
  %26 = load i64, ptr %25, align 8
  %27 = lshr i64 %26, 3
  %28 = and i64 %27, 1
  %29 = trunc i64 %28 to i32
  %30 = icmp ne i32 %29, 0
  br i1 %30, label %31, label %50

31:                                               ; preds = %2
  store i32 0, ptr %8, align 4, !tbaa !11
  br label %32

32:                                               ; preds = %46, %31
  %33 = load i32, ptr %8, align 4, !tbaa !11
  %34 = load i32, ptr %9, align 4, !tbaa !11
  %35 = icmp slt i32 %33, %34
  br i1 %35, label %36, label %49

36:                                               ; preds = %32
  %37 = load ptr, ptr %7, align 8, !tbaa !13
  %38 = load i32, ptr %8, align 4, !tbaa !11
  %39 = sext i32 %38 to i64
  %40 = getelementptr inbounds i32, ptr %37, i64 %39
  %41 = load i32, ptr %40, align 4, !tbaa !11
  %42 = xor i32 %41, -1
  %43 = icmp ne i32 %42, 0
  br i1 %43, label %44, label %45

44:                                               ; preds = %36
  store i32 0, ptr %3, align 4
  store i32 1, ptr %10, align 4
  br label %69

45:                                               ; preds = %36
  br label %46

46:                                               ; preds = %45
  %47 = load i32, ptr %8, align 4, !tbaa !11
  %48 = add nsw i32 %47, 1
  store i32 %48, ptr %8, align 4, !tbaa !11
  br label %32, !llvm.loop !22

49:                                               ; preds = %32
  br label %68

50:                                               ; preds = %2
  store i32 0, ptr %8, align 4, !tbaa !11
  br label %51

51:                                               ; preds = %64, %50
  %52 = load i32, ptr %8, align 4, !tbaa !11
  %53 = load i32, ptr %9, align 4, !tbaa !11
  %54 = icmp slt i32 %52, %53
  br i1 %54, label %55, label %67

55:                                               ; preds = %51
  %56 = load ptr, ptr %7, align 8, !tbaa !13
  %57 = load i32, ptr %8, align 4, !tbaa !11
  %58 = sext i32 %57 to i64
  %59 = getelementptr inbounds i32, ptr %56, i64 %58
  %60 = load i32, ptr %59, align 4, !tbaa !11
  %61 = icmp ne i32 %60, 0
  br i1 %61, label %62, label %63

62:                                               ; preds = %55
  store i32 0, ptr %3, align 4
  store i32 1, ptr %10, align 4
  br label %69

63:                                               ; preds = %55
  br label %64

64:                                               ; preds = %63
  %65 = load i32, ptr %8, align 4, !tbaa !11
  %66 = add nsw i32 %65, 1
  store i32 %66, ptr %8, align 4, !tbaa !11
  br label %51, !llvm.loop !23

67:                                               ; preds = %51
  br label %68

68:                                               ; preds = %67, %49
  store i32 1, ptr %3, align 4
  store i32 1, ptr %10, align 4
  br label %69

69:                                               ; preds = %68, %62, %44
  call void @llvm.lifetime.end.p0(i64 4, ptr %9) #7
  call void @llvm.lifetime.end.p0(i64 4, ptr %8) #7
  call void @llvm.lifetime.end.p0(i64 8, ptr %7) #7
  call void @llvm.lifetime.end.p0(i64 8, ptr %6) #7
  %70 = load i32, ptr %3, align 4
  ret i32 %70
}