; Function Attrs: nofree norecurse nosync nounwind memory(read, inaccessiblemem: none) uwtable
define range(i32 0, 2) i32 @Dch_NodeIsConst(ptr noundef readonly captures(none) %0, ptr noundef readonly captures(none) %1) #1 {
  %3 = getelementptr i8, ptr %0, i64 8
  %.val19 = load ptr, ptr %3, align 8, !tbaa !3
  %4 = getelementptr inbounds nuw i8, ptr %.val19, i64 8
  %5 = load ptr, ptr %4, align 8, !tbaa !9
  %6 = load ptr, ptr %.val19, align 8, !tbaa !9
  %7 = ptrtoint ptr %5 to i64
  %8 = ptrtoint ptr %6 to i64
  %9 = sub i64 %7, %8
  %10 = lshr i64 %9, 2
  %11 = trunc i64 %10 to i32
  %12 = getelementptr i8, ptr %1, i64 36
  %.val21 = load i32, ptr %12, align 4, !tbaa !10
  %13 = sext i32 %.val21 to i64
  %14 = getelementptr inbounds ptr, ptr %.val19, i64 %13
  %15 = load ptr, ptr %14, align 8, !tbaa !9
  %16 = getelementptr inbounds nuw i8, ptr %1, i64 24
  %17 = load i64, ptr %16, align 8
  %18 = and i64 %17, 8
  %.not = icmp eq i64 %18, 0
  %19 = icmp sgt i32 %11, 0
  br i1 %.not, label %.preheader, label %.preheader22

.preheader22:                                     ; preds = %2
  br i1 %19, label %.lr.ph.preheader, label %.loopexit

.lr.ph.preheader:                                 ; preds = %.preheader22
  %wide.trip.count = and i64 %10, 2147483647
  br label %.lr.ph

.preheader:                                       ; preds = %2
  br i1 %19, label %.lr.ph29.preheader, label %.loopexit

.lr.ph29.preheader:                               ; preds = %.preheader
  %wide.trip.count39 = and i64 %10, 2147483647
  br label %.lr.ph29

20:                                               ; preds = %.lr.ph
  %indvars.iv.next = add nuw nsw i64 %indvars.iv, 1
  %exitcond.not = icmp eq i64 %indvars.iv.next, %wide.trip.count
  br i1 %exitcond.not, label %.loopexit, label %.lr.ph, !llvm.loop !17

.lr.ph:                                           ; preds = %.lr.ph.preheader, %20
  %indvars.iv = phi i64 [ 0, %.lr.ph.preheader ], [ %indvars.iv.next, %20 ]
  %21 = getelementptr inbounds nuw i32, ptr %15, i64 %indvars.iv
  %22 = load i32, ptr %21, align 4, !tbaa !13
  %.not18 = icmp eq i32 %22, -1
  br i1 %.not18, label %20, label %.loopexit

23:                                               ; preds = %.lr.ph29
  %indvars.iv.next37 = add nuw nsw i64 %indvars.iv36, 1
  %exitcond40.not = icmp eq i64 %indvars.iv.next37, %wide.trip.count39
  br i1 %exitcond40.not, label %.loopexit, label %.lr.ph29, !llvm.loop !18

.lr.ph29:                                         ; preds = %.lr.ph29.preheader, %23
  %indvars.iv36 = phi i64 [ 0, %.lr.ph29.preheader ], [ %indvars.iv.next37, %23 ]
  %24 = getelementptr inbounds nuw i32, ptr %15, i64 %indvars.iv36
  %25 = load i32, ptr %24, align 4, !tbaa !13
  %.not17 = icmp eq i32 %25, 0
  br i1 %.not17, label %23, label %.loopexit

.loopexit:                                        ; preds = %.lr.ph, %20, %.lr.ph29, %23, %.preheader22, %.preheader
  %.0 = phi i32 [ 1, %.preheader ], [ 1, %.preheader22 ], [ 0, %.lr.ph29 ], [ 1, %23 ], [ 0, %.lr.ph ], [ 1, %20 ]
  ret i32 %.0
}